target datalayout = "e-m:e-p270:32:32-p271:32:32-p272:64:64-i64:64-i128:128-f80:128-n8:16:32:64-S128"
target triple = "x86_64-pc-linux-gnu"

%struct.ARKodeARKStepMemRec = type { ptr, ptr, i32, i32, i32, i32, i32, i32, ptr, ptr, ptr, ptr, ptr, ptr, i32, i32, i32, i32, ptr, ptr, ptr, ptr, i32, ptr, double, double, double, double, i32, double, double, double, double, double, double, i32, i64, i32, i32, i32, ptr, ptr, ptr, ptr, ptr, ptr, i32, ptr, ptr, ptr, ptr, ptr, ptr, i32, i32, i64, i64, i64, i64, i64, ptr, ptr, i32, i32, i32, double, double, ptr, i32, ptr, ptr }
%struct.ARKodeMemRec = type { ptr, double, ptr, i32, i32, double, double, ptr, i32, double, ptr, i32, i32, ptr, ptr, i32, ptr, ptr, i32, ptr, ptr, ptr, ptr, ptr, ptr, ptr, ptr, ptr, ptr, ptr, ptr, ptr, ptr, ptr, i32, ptr, ptr, i32, ptr, i32, ptr, ptr, ptr, ptr, ptr, ptr, ptr, ptr, ptr, ptr, ptr, ptr, ptr, ptr, ptr, ptr, ptr, ptr, ptr, ptr, ptr, ptr, ptr, ptr, ptr, ptr, i32, ptr, ptr, ptr, ptr, ptr, ptr, ptr, i32, ptr, ptr, ptr, i32, ptr, ptr, ptr, ptr, ptr, ptr, ptr, i32, i32, i32, i32, double, double, double, double, double, double, double, double, double, double, i32, ptr, i64, i32, i32, i32, i32, i64, i64, i32, i64, i64, i64, i64, i64, i64, i64, double, double, double, double, double, i32, double, double, i32, i32, i32, i32, i32, i32, i32, i32, ptr, i32, ptr, ptr, ptr, ptr, i32, i32, i32 }

@__func__.arkStep_NlsFPFunction_MassIdent = private unnamed_addr constant [32 x i8] c"arkStep_NlsFPFunction_MassIdent\00", align 1

; Function Attrs: nounwind uwtable
define i32 @arkStep_NlsFPFunction_MassIdent(ptr noundef %0, ptr noundef %1, ptr noundef %2) #0 {
  %4 = alloca i32, align 4
  %5 = alloca ptr, align 8
  %6 = alloca ptr, align 8
  %7 = alloca ptr, align 8
  %8 = alloca ptr, align 8
  %9 = alloca ptr, align 8
  %10 = alloca i32, align 4
  %11 = alloca i32, align 4
  store ptr %0, ptr %5, align 8, !tbaa !34
  store ptr %1, ptr %6, align 8, !tbaa !34
  store ptr %2, ptr %7, align 8, !tbaa !36
  call void @llvm.lifetime.start.p0(i64 8, ptr %8) #4
  call void @llvm.lifetime.start.p0(i64 8, ptr %9) #4
  call void @llvm.lifetime.start.p0(i64 4, ptr %10) #4
  %12 = load ptr, ptr %7, align 8, !tbaa !36
  %13 = call i32 @arkStep_AccessARKODEStepMem(ptr noundef %12, ptr noundef @__func__.arkStep_NlsFPFunction_MassIdent, ptr noundef %8, ptr noundef %9)
  store i32 %13, ptr %10, align 4, !tbaa !10
  %14 = load i32, ptr %10, align 4, !tbaa !10
  %15 = icmp ne i32 %14, 0
  br i1 %15, label %16, label %18

16:                                               ; preds = %3
  %17 = load i32, ptr %10, align 4, !tbaa !10
  store i32 %17, ptr %4, align 4
  store i32 1, ptr %11, align 4
  br label %76

18:                                               ; preds = %3
  %19 = load ptr, ptr %9, align 8, !tbaa !20
  %20 = getelementptr inbounds nuw %struct.ARKodeARKStepMemRec, ptr %19, i32 0, i32 12
  %21 = load ptr, ptr %20, align 8, !tbaa !45
  %22 = load ptr, ptr %5, align 8, !tbaa !34
  %23 = load ptr, ptr %8, align 8, !tbaa !3
  %24 = getelementptr inbounds nuw %struct.ARKodeMemRec, ptr %23, i32 0, i32 75
  %25 = load ptr, ptr %24, align 8, !tbaa !46
  call void @N_VLinearSum(double noundef 1.000000e+00, ptr noundef %21, double noundef 1.000000e+00, ptr noundef %22, ptr noundef %25)
  %26 = load ptr, ptr %9, align 8, !tbaa !20
  %27 = getelementptr inbounds nuw %struct.ARKodeARKStepMemRec, ptr %26, i32 0, i32 23
  %28 = load ptr, ptr %27, align 8, !tbaa !33
  %29 = load ptr, ptr %8, align 8, !tbaa !3
  %30 = getelementptr inbounds nuw %struct.ARKodeMemRec, ptr %29, i32 0, i32 98
  %31 = load double, ptr %30, align 8, !tbaa !55
  %32 = load ptr, ptr %8, align 8, !tbaa !3
  %33 = getelementptr inbounds nuw %struct.ARKodeMemRec, ptr %32, i32 0, i32 75
  %34 = load ptr, ptr %33, align 8, !tbaa !46
  %35 = load ptr, ptr %9, align 8, !tbaa !20
  %36 = getelementptr inbounds nuw %struct.ARKodeARKStepMemRec, ptr %35, i32 0, i32 9
  %37 = load ptr, ptr %36, align 8, !tbaa !53
  %38 = load ptr, ptr %9, align 8, !tbaa !20
  %39 = getelementptr inbounds nuw %struct.ARKodeARKStepMemRec, ptr %38, i32 0, i32 16
  %40 = load i32, ptr %39, align 8, !tbaa !54
  %41 = sext i32 %40 to i64
  %42 = getelementptr inbounds ptr, ptr %37, i64 %41
  %43 = load ptr, ptr %42, align 8, !tbaa !34
  %44 = load ptr, ptr %8, align 8, !tbaa !3
  %45 = getelementptr inbounds nuw %struct.ARKodeMemRec, ptr %44, i32 0, i32 2
  %46 = load ptr, ptr %45, align 8, !tbaa !56
  %47 = call i32 %28(double noundef %31, ptr noundef %34, ptr noundef %43, ptr noundef %46)
  store i32 %47, ptr %10, align 4, !tbaa !10
  %48 = load ptr, ptr %9, align 8, !tbaa !20
  %49 = getelementptr inbounds nuw %struct.ARKodeARKStepMemRec, ptr %48, i32 0, i32 56
  %50 = load i64, ptr %49, align 8, !tbaa !57
  %51 = add nsw i64 %50, 1
  store i64 %51, ptr %49, align 8, !tbaa !57
  %52 = load i32, ptr %10, align 4, !tbaa !10
  %53 = icmp slt i32 %52, 0
  br i1 %53, label %54, label %55

54:                                               ; preds = %18
  store i32 -8, ptr %4, align 4
  store i32 1, ptr %11, align 4
  br label %76

55:                                               ; preds = %18
  %56 = load i32, ptr %10, align 4, !tbaa !10
  %57 = icmp sgt i32 %56, 0
  br i1 %57, label %58, label %59

58:                                               ; preds = %55
  store i32 9, ptr %4, align 4
  store i32 1, ptr %11, align 4
  br label %76

59:                                               ; preds = %55
  %60 = load ptr, ptr %9, align 8, !tbaa !20
  %61 = getelementptr inbounds nuw %struct.ARKodeARKStepMemRec, ptr %60, i32 0, i32 24
  %62 = load double, ptr %61, align 8, !tbaa !59
  %63 = load ptr, ptr %9, align 8, !tbaa !20
  %64 = getelementptr inbounds nuw %struct.ARKodeARKStepMemRec, ptr %63, i32 0, i32 9
  %65 = load ptr, ptr %64, align 8, !tbaa !53
  %66 = load ptr, ptr %9, align 8, !tbaa !20
  %67 = getelementptr inbounds nuw %struct.ARKodeARKStepMemRec, ptr %66, i32 0, i32 16
  %68 = load i32, ptr %67, align 8, !tbaa !54
  %69 = sext i32 %68 to i64
  %70 = getelementptr inbounds ptr, ptr %65, i64 %69
  %71 = load ptr, ptr %70, align 8, !tbaa !34
  %72 = load ptr, ptr %9, align 8, !tbaa !20
  %73 = getelementptr inbounds nuw %struct.ARKodeARKStepMemRec, ptr %72, i32 0, i32 11
  %74 = load ptr, ptr %73, align 8, !tbaa !58
  %75 = load ptr, ptr %6, align 8, !tbaa !34
  call void @N_VLinearSum(double noundef %62, ptr noundef %71, double noundef 1.000000e+00, ptr noundef %74, ptr noundef %75)
  store i32 0, ptr %4, align 4
  store i32 1, ptr %11, align 4
  br label %76

76:                                               ; preds = %59, %58, %54, %16
  call void @llvm.lifetime.end.p0(i64 4, ptr %10) #4
  call void @llvm.lifetime.end.p0(i64 8, ptr %9) #4
  call void @llvm.lifetime.end.p0(i64 8, ptr %8) #4
  %77 = load i32, ptr %4, align 4
  ret i32 %77
}